target datalayout = "e-m:e-p270:32:32-p271:32:32-p272:64:64-i64:64-i128:128-f80:128-n8:16:32:64-S128"
target triple = "x86_64-pc-linux-gnu"

%"class.open3d::(anonymous namespace)::GlobalColorMapSingleton" = type { %"class.std::shared_ptr" }
%"class.std::shared_ptr" = type { %"class.std::__shared_ptr" }
%"class.std::__shared_ptr" = type { ptr, %"class.std::__shared_count" }
%"class.std::__shared_count" = type { ptr }
%"class.std::_Sp_counted_base" = type { ptr, i32, i32 }

@_ZZN6open3d12_GLOBAL__N_123GlobalColorMapSingleton11GetInstanceEvE9singleton = internal global %"class.open3d::(anonymous namespace)::GlobalColorMapSingleton" zeroinitializer, align 8
@_ZGVZN6open3d12_GLOBAL__N_123GlobalColorMapSingleton11GetInstanceEvE9singleton = internal global i64 0, align 8
@__dso_handle = external hidden global i8
@__libc_single_threaded = external global i8, align 1

; Function Attrs: alwaysinline mustprogress nounwind ssp uwtable
define linkonce_odr void @_ZN9__gnu_cxx12__atomic_addEPVii(ptr noundef %0, i32 noundef %1) #9 comdat {
  %3 = alloca ptr, align 8
  %4 = alloca i32, align 4
  %5 = alloca i32, align 4
  %6 = alloca i32, align 4
  store ptr %0, ptr %3, align 8, !tbaa !254
  store i32 %1, ptr %4, align 4, !tbaa !209
  %7 = load ptr, ptr %3, align 8, !tbaa !254
  %8 = load i32, ptr %4, align 4, !tbaa !209
  store i32 %8, ptr %5, align 4, !tbaa !209
  %9 = load i32, ptr %5, align 4
  %10 = atomicrmw volatile add ptr %7, i32 %9 acq_rel, align 4
  store i32 %10, ptr %6, align 4
  ret void
}

; Function Attrs: alwaysinline mustprogress nounwind ssp uwtable
define linkonce_odr void @_ZN9__gnu_cxx19__atomic_add_singleEPii(ptr noundef %0, i32 noundef %1) #9 comdat {
  %3 = alloca ptr, align 8
  %4 = alloca i32, align 4
  store ptr %0, ptr %3, align 8, !tbaa !254
  store i32 %1, ptr %4, align 4, !tbaa !209
  %5 = load i32, ptr %4, align 4, !tbaa !209
  %6 = load ptr, ptr %3, align 8, !tbaa !254
  %7 = load i32, ptr %6, align 4, !tbaa !209
  %8 = add nsw i32 %7, %5
  store i32 %8, ptr %6, align 4, !tbaa !209
  ret void
}

; Function Attrs: alwaysinline mustprogress nounwind ssp uwtable
define linkonce_odr noundef zeroext i1 @_ZN9__gnu_cxx20__is_single_threadedEv() #9 comdat {
  %1 = load i8, ptr @__libc_single_threaded, align 1, !tbaa !48
  %2 = icmp ne i8 %1, 0
  ret i1 %2
}

; Function Attrs: alwaysinline mustprogress ssp uwtable
define linkonce_odr void @_ZN9__gnu_cxx21__atomic_add_dispatchEPii(ptr noundef %0, i32 noundef %1) #11 comdat {
  %3 = alloca ptr, align 8
  %4 = alloca i32, align 4
  store ptr %0, ptr %3, align 8, !tbaa !254
  store i32 %1, ptr %4, align 4, !tbaa !209
  %5 = call noundef zeroext i1 @_ZN9__gnu_cxx20__is_single_threadedEv() #14
  br i1 %5, label %6, label %9

6:                                                ; preds = %2
  %7 = load ptr, ptr %3, align 8, !tbaa !254
  %8 = load i32, ptr %4, align 4, !tbaa !209
  call void @_ZN9__gnu_cxx19__atomic_add_singleEPii(ptr noundef %7, i32 noundef %8)
  br label %12

9:                                                ; preds = %2
  %10 = load ptr, ptr %3, align 8, !tbaa !254
  %11 = load i32, ptr %4, align 4, !tbaa !209
  call void @_ZN9__gnu_cxx12__atomic_addEPVii(ptr noundef %10, i32 noundef %11)
  br label %12

12:                                               ; preds = %9, %6
  ret void
}

; Function Attrs: noinline noreturn nounwind ssp uwtable
define linkonce_odr hidden void @__clang_call_terminate(ptr noundef %0) #8 comdat {
  %2 = call ptr @__cxa_begin_catch(ptr %0) #14
  call void @_ZSt9terminatev() #24
  unreachable
}

; Function Attrs: mustprogress ssp uwtable
define linkonce_odr void @_ZNSt16_Sp_counted_baseILN9__gnu_cxx12_Lock_policyE2EE15_M_add_ref_copyEv(ptr noundef nonnull align 8 dereferenceable(16) %0) #1 comdat align 2 {
  %2 = alloca ptr, align 8
  store ptr %0, ptr %2, align 8, !tbaa !223
  %3 = load ptr, ptr %2, align 8
  %4 = getelementptr inbounds nuw %"class.std::_Sp_counted_base", ptr %3, i32 0, i32 1
  call void @_ZN9__gnu_cxx21__atomic_add_dispatchEPii(ptr noundef %4, i32 noundef 1)
  ret void
}

; Function Attrs: mustprogress nounwind ssp uwtable
define linkonce_odr void @_ZNSt14__shared_countILN9__gnu_cxx12_Lock_policyE2EEC2ERKS2_(ptr noundef nonnull align 8 dereferenceable(8) %0, ptr noundef nonnull align 8 dereferenceable(8) %1) unnamed_addr #2 comdat align 2 personality ptr @__gxx_personality_v0 {
  %3 = alloca ptr, align 8
  %4 = alloca ptr, align 8
  store ptr %0, ptr %3, align 8, !tbaa !211
  store ptr %1, ptr %4, align 8, !tbaa !211
  %5 = load ptr, ptr %3, align 8
  %6 = getelementptr inbounds nuw %"class.std::__shared_count", ptr %5, i32 0, i32 0
  %7 = load ptr, ptr %4, align 8, !tbaa !211
  %8 = getelementptr inbounds nuw %"class.std::__shared_count", ptr %7, i32 0, i32 0
  %9 = load ptr, ptr %8, align 8, !tbaa !215
  store ptr %9, ptr %6, align 8, !tbaa !215
  %10 = getelementptr inbounds nuw %"class.std::__shared_count", ptr %5, i32 0, i32 0
  %11 = load ptr, ptr %10, align 8, !tbaa !215
  %12 = icmp ne ptr %11, null
  br i1 %12, label %13, label %17

13:                                               ; preds = %2
  %14 = getelementptr inbounds nuw %"class.std::__shared_count", ptr %5, i32 0, i32 0
  %15 = load ptr, ptr %14, align 8, !tbaa !215
  invoke void @_ZNSt16_Sp_counted_baseILN9__gnu_cxx12_Lock_policyE2EE15_M_add_ref_copyEv(ptr noundef nonnull align 8 dereferenceable(16) %15)
          to label %16 unwind label %18

16:                                               ; preds = %13
  br label %17

17:                                               ; preds = %16, %2
  ret void

18:                                               ; preds = %13
  %19 = landingpad { ptr, i32 }
          catch ptr null
  %20 = extractvalue { ptr, i32 } %19, 0
  call void @__clang_call_terminate(ptr %20) #24
  unreachable
}

; Function Attrs: mustprogress nounwind ssp uwtable
define linkonce_odr void @_ZNSt12__shared_ptrIKN6open3d13visualization8ColorMapELN9__gnu_cxx12_Lock_policyE2EEC2ERKS6_(ptr noundef nonnull align 8 dereferenceable(16) %0, ptr noundef nonnull align 8 dereferenceable(16) %1) unnamed_addr #2 comdat align 2 {
  %3 = alloca ptr, align 8
  %4 = alloca ptr, align 8
  store ptr %0, ptr %3, align 8, !tbaa !213
  store ptr %1, ptr %4, align 8, !tbaa !213
  %5 = load ptr, ptr %3, align 8
  %6 = getelementptr inbounds nuw %"class.std::__shared_ptr", ptr %5, i32 0, i32 0
  %7 = load ptr, ptr %4, align 8, !tbaa !213
  %8 = getelementptr inbounds nuw %"class.std::__shared_ptr", ptr %7, i32 0, i32 0
  %9 = load ptr, ptr %8, align 8, !tbaa !256
  store ptr %9, ptr %6, align 8, !tbaa !256
  %10 = getelementptr inbounds nuw %"class.std::__shared_ptr", ptr %5, i32 0, i32 1
  %11 = load ptr, ptr %4, align 8, !tbaa !213
  %12 = getelementptr inbounds nuw %"class.std::__shared_ptr", ptr %11, i32 0, i32 1
  call void @_ZNSt14__shared_countILN9__gnu_cxx12_Lock_policyE2EEC2ERKS2_(ptr noundef nonnull align 8 dereferenceable(8) %10, ptr noundef nonnull align 8 dereferenceable(8) %12) #14
  ret void
}

; Function Attrs: mustprogress nounwind ssp uwtable
define linkonce_odr void @_ZNSt10shared_ptrIKN6open3d13visualization8ColorMapEEC2ERKS4_(ptr noundef nonnull align 8 dereferenceable(16) %0, ptr noundef nonnull align 8 dereferenceable(16) %1) unnamed_addr #2 comdat align 2 {
  %3 = alloca ptr, align 8
  %4 = alloca ptr, align 8
  store ptr %0, ptr %3, align 8, !tbaa !201
  store ptr %1, ptr %4, align 8, !tbaa !201
  %5 = load ptr, ptr %3, align 8
  %6 = load ptr, ptr %4, align 8, !tbaa !201
  call void @_ZNSt12__shared_ptrIKN6open3d13visualization8ColorMapELN9__gnu_cxx12_Lock_policyE2EEC2ERKS6_(ptr noundef nonnull align 8 dereferenceable(16) %5, ptr noundef nonnull align 8 dereferenceable(16) %6) #14
  ret void
}

; Function Attrs: mustprogress ssp uwtable
define internal noundef nonnull align 8 dereferenceable(16) ptr @_ZN6open3d12_GLOBAL__N_123GlobalColorMapSingleton11GetInstanceEv() #1 align 2 personality ptr @__gxx_personality_v0 {
  %1 = alloca ptr, align 8
  %2 = alloca i32, align 4
  %3 = load atomic i8, ptr @_ZGVZN6open3d12_GLOBAL__N_123GlobalColorMapSingleton11GetInstanceEvE9singleton acquire, align 8
  %4 = icmp eq i8 %3, 0
  br i1 %4, label %5, label %11, !prof !200

5:                                                ; preds = %0
  %6 = call i32 @__cxa_guard_acquire(ptr @_ZGVZN6open3d12_GLOBAL__N_123GlobalColorMapSingleton11GetInstanceEvE9singleton) #14
  %7 = icmp ne i32 %6, 0
  br i1 %7, label %8, label %11

8:                                                ; preds = %5
  invoke void @_ZN6open3d12_GLOBAL__N_123GlobalColorMapSingletonC2Ev(ptr noundef nonnull align 8 dereferenceable(16) @_ZZN6open3d12_GLOBAL__N_123GlobalColorMapSingleton11GetInstanceEvE9singleton)
          to label %9 unwind label %12

9:                                                ; preds = %8
  %10 = call i32 @__cxa_atexit(ptr @_ZN6open3d12_GLOBAL__N_123GlobalColorMapSingletonD2Ev, ptr @_ZZN6open3d12_GLOBAL__N_123GlobalColorMapSingleton11GetInstanceEvE9singleton, ptr @__dso_handle) #14
  call void @__cxa_guard_release(ptr @_ZGVZN6open3d12_GLOBAL__N_123GlobalColorMapSingleton11GetInstanceEvE9singleton) #14
  br label %11

11:                                               ; preds = %9, %5, %0
  ret ptr @_ZZN6open3d12_GLOBAL__N_123GlobalColorMapSingleton11GetInstanceEvE9singleton

12:                                               ; preds = %8
  %13 = landingpad { ptr, i32 }
          cleanup
  %14 = extractvalue { ptr, i32 } %13, 0
  store ptr %14, ptr %1, align 8
  %15 = extractvalue { ptr, i32 } %13, 1
  store i32 %15, ptr %2, align 4
  call void @__cxa_guard_abort(ptr @_ZGVZN6open3d12_GLOBAL__N_123GlobalColorMapSingleton11GetInstanceEvE9singleton) #14
  br label %16

16:                                               ; preds = %12
  %17 = load ptr, ptr %1, align 8
  %18 = load i32, ptr %2, align 4
  %19 = insertvalue { ptr, i32 } poison, ptr %17, 0
  %20 = insertvalue { ptr, i32 } %19, i32 %18, 1
  resume { ptr, i32 } %20
}

; Function Attrs: mustprogress ssp uwtable
define void @_ZN6open3d13visualization17GetGlobalColorMapEv(ptr dead_on_unwind noalias writable sret(%"class.std::shared_ptr") align 8 %0) #1 {
  %2 = alloca ptr, align 8
  store ptr %0, ptr %2, align 8
  %3 = call noundef nonnull align 8 dereferenceable(16) ptr @_ZN6open3d12_GLOBAL__N_123GlobalColorMapSingleton11GetInstanceEv()
  %4 = getelementptr inbounds nuw %"class.open3d::(anonymous namespace)::GlobalColorMapSingleton", ptr %3, i32 0, i32 0
  call void @_ZNSt10shared_ptrIKN6open3d13visualization8ColorMapEEC2ERKS4_(ptr noundef nonnull align 8 dereferenceable(16) %0, ptr noundef nonnull align 8 dereferenceable(16) %4) #14
  ret void
}