; Function Attrs: mustprogress ssp uwtable
define void @_ZN6open3d13visualization17GetGlobalColorMapEv(ptr dead_on_unwind noalias writable writeonly sret(%"class.std::shared_ptr") align 8 captures(none) %0) local_unnamed_addr #9 personality ptr @__gxx_personality_v0 {
  %2 = load atomic i8, ptr @_ZGVZN6open3d12_GLOBAL__N_123GlobalColorMapSingleton11GetInstanceEvE9singleton acquire, align 8
  %3 = icmp eq i8 %2, 0
  br i1 %3, label %4, label %_ZN6open3d12_GLOBAL__N_123GlobalColorMapSingleton11GetInstanceEv.exit, !prof !18

4:                                                ; preds = %1
  %5 = tail call i32 @__cxa_guard_acquire(ptr nonnull @_ZGVZN6open3d12_GLOBAL__N_123GlobalColorMapSingleton11GetInstanceEvE9singleton) #22
  %.not.i = icmp eq i32 %5, 0
  br i1 %.not.i, label %_ZN6open3d12_GLOBAL__N_123GlobalColorMapSingleton11GetInstanceEv.exit, label %6

6:                                                ; preds = %4
  invoke fastcc void @_ZN6open3d12_GLOBAL__N_123GlobalColorMapSingletonC2Ev()
          to label %7 unwind label %9

7:                                                ; preds = %6
  %8 = tail call i32 @__cxa_atexit(ptr nonnull @_ZN6open3d12_GLOBAL__N_123GlobalColorMapSingletonD2Ev, ptr nonnull @_ZZN6open3d12_GLOBAL__N_123GlobalColorMapSingleton11GetInstanceEvE9singleton, ptr nonnull @__dso_handle) #22
  tail call void @__cxa_guard_release(ptr nonnull @_ZGVZN6open3d12_GLOBAL__N_123GlobalColorMapSingleton11GetInstanceEvE9singleton) #22
  br label %_ZN6open3d12_GLOBAL__N_123GlobalColorMapSingleton11GetInstanceEv.exit

9:                                                ; preds = %6
  %10 = landingpad { ptr, i32 }
          cleanup
  tail call void @__cxa_guard_abort(ptr nonnull @_ZGVZN6open3d12_GLOBAL__N_123GlobalColorMapSingleton11GetInstanceEvE9singleton) #22
  resume { ptr, i32 } %10

_ZN6open3d12_GLOBAL__N_123GlobalColorMapSingleton11GetInstanceEv.exit: ; preds = %1, %4, %7
  %11 = load ptr, ptr @_ZZN6open3d12_GLOBAL__N_123GlobalColorMapSingleton11GetInstanceEvE9singleton, align 8, !tbaa !19
  store ptr %11, ptr %0, align 8, !tbaa !19
  %12 = getelementptr inbounds nuw i8, ptr %0, i64 8
  %13 = load ptr, ptr getelementptr inbounds nuw (i8, ptr @_ZZN6open3d12_GLOBAL__N_123GlobalColorMapSingleton11GetInstanceEvE9singleton, i64 8), align 8, !tbaa !25
  store ptr %13, ptr %12, align 8, !tbaa !25
  %.not.i.i.i = icmp eq ptr %13, null
  br i1 %.not.i.i.i, label %_ZNSt10shared_ptrIKN6open3d13visualization8ColorMapEEC2ERKS4_.exit, label %14

14:                                               ; preds = %_ZN6open3d12_GLOBAL__N_123GlobalColorMapSingleton11GetInstanceEv.exit
  %15 = getelementptr inbounds nuw i8, ptr %13, i64 8
  %16 = load i8, ptr @__libc_single_threaded, align 1, !tbaa !8
  %.not.i.i.i.i = icmp eq i8 %16, 0
  br i1 %.not.i.i.i.i, label %20, label %17

17:                                               ; preds = %14
  %18 = load i32, ptr %15, align 4, !tbaa !26
  %19 = add nsw i32 %18, 1
  store i32 %19, ptr %15, align 4, !tbaa !26
  br label %_ZNSt10shared_ptrIKN6open3d13visualization8ColorMapEEC2ERKS4_.exit

20:                                               ; preds = %14
  %21 = atomicrmw volatile add ptr %15, i32 1 acq_rel, align 4
  br label %_ZNSt10shared_ptrIKN6open3d13visualization8ColorMapEEC2ERKS4_.exit

_ZNSt10shared_ptrIKN6open3d13visualization8ColorMapEEC2ERKS4_.exit: ; preds = %_ZN6open3d12_GLOBAL__N_123GlobalColorMapSingleton11GetInstanceEv.exit, %17, %20
  ret void
}